target datalayout = "e-m:e-p270:32:32-p271:32:32-p272:64:64-i64:64-i128:128-f80:128-n8:16:32:64-S128"
target triple = "x86_64-pc-linux-gnu"

%struct.AVFilterContext = type { ptr, ptr, ptr, ptr, ptr, i32, ptr, ptr, i32, ptr, ptr, i32, i32, ptr, ptr, ptr, ptr, i32, ptr, i32, i32 }
%struct.StackContext = type { ptr, ptr, i32, ptr, i32, i32, i32, i32, i32, i32, [4 x i8], ptr, i32, %struct.FFDrawContext, %struct.FFDrawColor, ptr, ptr, %struct.FFFrameSync }
%struct.FFDrawContext = type { ptr, i32, i32, [4 x i32], [4 x i8], [4 x i8], i8, i8, i32, i32, i32, [3 x [3 x double]] }
%struct.FFDrawColor = type { [4 x i8], [4 x %union.anon.2] }
%union.anon.2 = type { [4 x i32] }
%struct.FFFrameSync = type { ptr, ptr, i32, %struct.AVRational, i64, ptr, ptr, i32, i32, i8, i8, ptr, i32, i32, i32, i32 }
%struct.AVRational = type { i32, i32 }
%struct.AVChannelLayout = type { i32, i32, %union.anon.1, ptr }
%union.anon.1 = type { i64 }
%struct.StackItem = type { [4 x i32], [4 x i32], [4 x i32], [4 x i32] }
%struct.AVFrame = type { [8 x ptr], [8 x i32], ptr, i32, i32, i32, i32, i32, %struct.AVRational, i64, i64, %struct.AVRational, i32, ptr, i32, i32, [8 x ptr], ptr, i32, ptr, i32, i32, i32, i32, i32, i32, i32, i64, ptr, i32, ptr, ptr, i64, i64, i64, i64, ptr, %struct.AVChannelLayout, i64 }

; Function Attrs: nounwind uwtable
define internal i32 @process_slice(ptr noundef %0, ptr noundef %1, i32 noundef %2, i32 noundef %3) #1 {
  %5 = alloca ptr, align 8
  %6 = alloca ptr, align 8
  %7 = alloca i32, align 4
  %8 = alloca i32, align 4
  %9 = alloca ptr, align 8
  %10 = alloca ptr, align 8
  %11 = alloca ptr, align 8
  %12 = alloca i32, align 4
  %13 = alloca i32, align 4
  %14 = alloca i32, align 4
  %15 = alloca i32, align 4
  %16 = alloca ptr, align 8
  %17 = alloca i32, align 4
  store ptr %0, ptr %5, align 8, !tbaa !4
  store ptr %1, ptr %6, align 8, !tbaa !117
  store i32 %2, ptr %7, align 4, !tbaa !43
  store i32 %3, ptr %8, align 4, !tbaa !43
  call void @llvm.lifetime.start.p0(i64 8, ptr %9) #11
  %18 = load ptr, ptr %5, align 8, !tbaa !4
  %19 = getelementptr inbounds nuw %struct.AVFilterContext, ptr %18, i32 0, i32 9
  %20 = load ptr, ptr %19, align 8, !tbaa !9
  store ptr %20, ptr %9, align 8, !tbaa !22
  call void @llvm.lifetime.start.p0(i64 8, ptr %10) #11
  %21 = load ptr, ptr %6, align 8, !tbaa !117
  store ptr %21, ptr %10, align 8, !tbaa !110
  call void @llvm.lifetime.start.p0(i64 8, ptr %11) #11
  %22 = load ptr, ptr %9, align 8, !tbaa !22
  %23 = getelementptr inbounds nuw %struct.StackContext, ptr %22, i32 0, i32 16
  %24 = load ptr, ptr %23, align 8, !tbaa !46
  store ptr %24, ptr %11, align 8, !tbaa !108
  call void @llvm.lifetime.start.p0(i64 4, ptr %12) #11
  %25 = load ptr, ptr %9, align 8, !tbaa !22
  %26 = getelementptr inbounds nuw %struct.StackContext, ptr %25, i32 0, i32 2
  %27 = load i32, ptr %26, align 8, !tbaa !45
  %28 = load i32, ptr %7, align 4, !tbaa !43
  %29 = mul nsw i32 %27, %28
  %30 = load i32, ptr %8, align 4, !tbaa !43
  %31 = sdiv i32 %29, %30
  store i32 %31, ptr %12, align 4, !tbaa !43
  call void @llvm.lifetime.start.p0(i64 4, ptr %13) #11
  %32 = load ptr, ptr %9, align 8, !tbaa !22
  %33 = getelementptr inbounds nuw %struct.StackContext, ptr %32, i32 0, i32 2
  %34 = load i32, ptr %33, align 8, !tbaa !45
  %35 = load i32, ptr %7, align 4, !tbaa !43
  %36 = add nsw i32 %35, 1
  %37 = mul nsw i32 %34, %36
  %38 = load i32, ptr %8, align 4, !tbaa !43
  %39 = sdiv i32 %37, %38
  store i32 %39, ptr %13, align 4, !tbaa !43
  call void @llvm.lifetime.start.p0(i64 4, ptr %14) #11
  %40 = load i32, ptr %12, align 4, !tbaa !43
  store i32 %40, ptr %14, align 4, !tbaa !43
  br label %41

41:                                               ; preds = %132, %4
  %42 = load i32, ptr %14, align 4, !tbaa !43
  %43 = load i32, ptr %13, align 4, !tbaa !43
  %44 = icmp slt i32 %42, %43
  br i1 %44, label %46, label %45

45:                                               ; preds = %41
  store i32 2, ptr %15, align 4
  call void @llvm.lifetime.end.p0(i64 4, ptr %14) #11
  br label %135

46:                                               ; preds = %41
  call void @llvm.lifetime.start.p0(i64 8, ptr %16) #11
  %47 = load ptr, ptr %9, align 8, !tbaa !22
  %48 = getelementptr inbounds nuw %struct.StackContext, ptr %47, i32 0, i32 15
  %49 = load ptr, ptr %48, align 8, !tbaa !47
  %50 = load i32, ptr %14, align 4, !tbaa !43
  %51 = sext i32 %50 to i64
  %52 = getelementptr inbounds %struct.StackItem, ptr %49, i64 %51
  store ptr %52, ptr %16, align 8, !tbaa !72
  call void @llvm.lifetime.start.p0(i64 4, ptr %17) #11
  store i32 0, ptr %17, align 4, !tbaa !43
  br label %53

53:                                               ; preds = %128, %46
  %54 = load i32, ptr %17, align 4, !tbaa !43
  %55 = load ptr, ptr %9, align 8, !tbaa !22
  %56 = getelementptr inbounds nuw %struct.StackContext, ptr %55, i32 0, i32 7
  %57 = load i32, ptr %56, align 4, !tbaa !85
  %58 = icmp slt i32 %54, %57
  br i1 %58, label %60, label %59

59:                                               ; preds = %53
  store i32 5, ptr %15, align 4
  call void @llvm.lifetime.end.p0(i64 4, ptr %17) #11
  br label %131

60:                                               ; preds = %53
  %61 = load ptr, ptr %10, align 8, !tbaa !110
  %62 = getelementptr inbounds nuw %struct.AVFrame, ptr %61, i32 0, i32 0
  %63 = load i32, ptr %17, align 4, !tbaa !43
  %64 = sext i32 %63 to i64
  %65 = getelementptr inbounds [8 x ptr], ptr %62, i64 0, i64 %64
  %66 = load ptr, ptr %65, align 8, !tbaa !79
  %67 = load ptr, ptr %10, align 8, !tbaa !110
  %68 = getelementptr inbounds nuw %struct.AVFrame, ptr %67, i32 0, i32 1
  %69 = load i32, ptr %17, align 4, !tbaa !43
  %70 = sext i32 %69 to i64
  %71 = getelementptr inbounds [8 x i32], ptr %68, i64 0, i64 %70
  %72 = load i32, ptr %71, align 4, !tbaa !43
  %73 = load ptr, ptr %16, align 8, !tbaa !72
  %74 = getelementptr inbounds nuw %struct.StackItem, ptr %73, i32 0, i32 1
  %75 = load i32, ptr %17, align 4, !tbaa !43
  %76 = sext i32 %75 to i64
  %77 = getelementptr inbounds [4 x i32], ptr %74, i64 0, i64 %76
  %78 = load i32, ptr %77, align 4, !tbaa !43
  %79 = mul nsw i32 %72, %78
  %80 = sext i32 %79 to i64
  %81 = getelementptr inbounds i8, ptr %66, i64 %80
  %82 = load ptr, ptr %16, align 8, !tbaa !72
  %83 = getelementptr inbounds nuw %struct.StackItem, ptr %82, i32 0, i32 0
  %84 = load i32, ptr %17, align 4, !tbaa !43
  %85 = sext i32 %84 to i64
  %86 = getelementptr inbounds [4 x i32], ptr %83, i64 0, i64 %85
  %87 = load i32, ptr %86, align 4, !tbaa !43
  %88 = sext i32 %87 to i64
  %89 = getelementptr inbounds i8, ptr %81, i64 %88
  %90 = load ptr, ptr %10, align 8, !tbaa !110
  %91 = getelementptr inbounds nuw %struct.AVFrame, ptr %90, i32 0, i32 1
  %92 = load i32, ptr %17, align 4, !tbaa !43
  %93 = sext i32 %92 to i64
  %94 = getelementptr inbounds [8 x i32], ptr %91, i64 0, i64 %93
  %95 = load i32, ptr %94, align 4, !tbaa !43
  %96 = load ptr, ptr %11, align 8, !tbaa !108
  %97 = load i32, ptr %14, align 4, !tbaa !43
  %98 = sext i32 %97 to i64
  %99 = getelementptr inbounds ptr, ptr %96, i64 %98
  %100 = load ptr, ptr %99, align 8, !tbaa !110
  %101 = getelementptr inbounds nuw %struct.AVFrame, ptr %100, i32 0, i32 0
  %102 = load i32, ptr %17, align 4, !tbaa !43
  %103 = sext i32 %102 to i64
  %104 = getelementptr inbounds [8 x ptr], ptr %101, i64 0, i64 %103
  %105 = load ptr, ptr %104, align 8, !tbaa !79
  %106 = load ptr, ptr %11, align 8, !tbaa !108
  %107 = load i32, ptr %14, align 4, !tbaa !43
  %108 = sext i32 %107 to i64
  %109 = getelementptr inbounds ptr, ptr %106, i64 %108
  %110 = load ptr, ptr %109, align 8, !tbaa !110
  %111 = getelementptr inbounds nuw %struct.AVFrame, ptr %110, i32 0, i32 1
  %112 = load i32, ptr %17, align 4, !tbaa !43
  %113 = sext i32 %112 to i64
  %114 = getelementptr inbounds [8 x i32], ptr %111, i64 0, i64 %113
  %115 = load i32, ptr %114, align 4, !tbaa !43
  %116 = load ptr, ptr %16, align 8, !tbaa !72
  %117 = getelementptr inbounds nuw %struct.StackItem, ptr %116, i32 0, i32 2
  %118 = load i32, ptr %17, align 4, !tbaa !43
  %119 = sext i32 %118 to i64
  %120 = getelementptr inbounds [4 x i32], ptr %117, i64 0, i64 %119
  %121 = load i32, ptr %120, align 4, !tbaa !43
  %122 = load ptr, ptr %16, align 8, !tbaa !72
  %123 = getelementptr inbounds nuw %struct.StackItem, ptr %122, i32 0, i32 3
  %124 = load i32, ptr %17, align 4, !tbaa !43
  %125 = sext i32 %124 to i64
  %126 = getelementptr inbounds [4 x i32], ptr %123, i64 0, i64 %125
  %127 = load i32, ptr %126, align 4, !tbaa !43
  call void @av_image_copy_plane(ptr noundef %89, i32 noundef %95, ptr noundef %105, i32 noundef %115, i32 noundef %121, i32 noundef %127)
  br label %128

128:                                              ; preds = %60
  %129 = load i32, ptr %17, align 4, !tbaa !43
  %130 = add nsw i32 %129, 1
  store i32 %130, ptr %17, align 4, !tbaa !43
  br label %53, !llvm.loop !118

131:                                              ; preds = %59
  call void @llvm.lifetime.end.p0(i64 8, ptr %16) #11
  br label %132

132:                                              ; preds = %131
  %133 = load i32, ptr %14, align 4, !tbaa !43
  %134 = add nsw i32 %133, 1
  store i32 %134, ptr %14, align 4, !tbaa !43
  br label %41, !llvm.loop !119

135:                                              ; preds = %45
  store i32 1, ptr %15, align 4
  call void @llvm.lifetime.end.p0(i64 4, ptr %13) #11
  call void @llvm.lifetime.end.p0(i64 4, ptr %12) #11
  call void @llvm.lifetime.end.p0(i64 8, ptr %11) #11
  call void @llvm.lifetime.end.p0(i64 8, ptr %10) #11
  call void @llvm.lifetime.end.p0(i64 8, ptr %9) #11
  ret i32 0
}