; Function Attrs: nounwind uwtable
define internal noundef i32 @process_slice(ptr noundef readonly captures(none) %0, ptr noundef readonly captures(none) %1, i32 noundef %2, i32 noundef %3) #1 {
  %5 = getelementptr inbounds nuw i8, ptr %0, i64 72
  %6 = load ptr, ptr %5, align 8, !tbaa !4
  %7 = getelementptr inbounds nuw i8, ptr %6, i64 288
  %8 = load ptr, ptr %7, align 8, !tbaa !42
  %9 = getelementptr inbounds nuw i8, ptr %6, i64 16
  %10 = load i32, ptr %9, align 8, !tbaa !41
  %11 = mul nsw i32 %10, %2
  %12 = sdiv i32 %11, %3
  %13 = add nsw i32 %2, 1
  %14 = mul nsw i32 %10, %13
  %15 = sdiv i32 %14, %3
  %16 = icmp slt i32 %12, %15
  br i1 %16, label %.lr.ph41, label %._crit_edge42

.lr.ph41:                                         ; preds = %4
  %17 = getelementptr inbounds nuw i8, ptr %6, i64 280
  %18 = getelementptr inbounds nuw i8, ptr %6, i64 44
  %19 = getelementptr inbounds nuw i8, ptr %1, i64 64
  %20 = load i32, ptr %18, align 4, !tbaa !75
  %21 = icmp sgt i32 %20, 0
  br i1 %21, label %.lr.ph41.split.preheader, label %._crit_edge42

.lr.ph41.split.preheader:                         ; preds = %.lr.ph41
  %22 = sext i32 %12 to i64
  br label %.lr.ph41.split

._crit_edge42:                                    ; preds = %._crit_edge, %.lr.ph41, %4
  ret i32 0

.lr.ph41.split:                                   ; preds = %.lr.ph41.split.preheader, %._crit_edge
  %23 = phi i32 [ %20, %.lr.ph41.split.preheader ], [ %31, %._crit_edge ]
  %indvars.iv45 = phi i64 [ %22, %.lr.ph41.split.preheader ], [ %indvars.iv.next46, %._crit_edge ]
  %24 = load ptr, ptr %17, align 8, !tbaa !43
  %25 = getelementptr inbounds %struct.StackItem, ptr %24, i64 %indvars.iv45
  %26 = icmp sgt i32 %23, 0
  br i1 %26, label %.lr.ph, label %._crit_edge

.lr.ph:                                           ; preds = %.lr.ph41.split
  %27 = getelementptr inbounds nuw i8, ptr %25, i64 16
  %28 = getelementptr inbounds ptr, ptr %8, i64 %indvars.iv45
  %29 = getelementptr inbounds nuw i8, ptr %25, i64 32
  %30 = getelementptr inbounds nuw i8, ptr %25, i64 48
  br label %32

._crit_edge:                                      ; preds = %32, %.lr.ph41.split
  %31 = phi i32 [ %23, %.lr.ph41.split ], [ %56, %32 ]
  %indvars.iv.next46 = add nsw i64 %indvars.iv45, 1
  %lftr.wideiv = trunc i64 %indvars.iv.next46 to i32
  %exitcond.not = icmp eq i32 %15, %lftr.wideiv
  br i1 %exitcond.not, label %._crit_edge42, label %.lr.ph41.split, !llvm.loop !100

32:                                               ; preds = %.lr.ph, %32
  %indvars.iv = phi i64 [ 0, %.lr.ph ], [ %indvars.iv.next, %32 ]
  %33 = getelementptr inbounds nuw [8 x ptr], ptr %1, i64 0, i64 %indvars.iv
  %34 = load ptr, ptr %33, align 8, !tbaa !69
  %35 = getelementptr inbounds nuw [8 x i32], ptr %19, i64 0, i64 %indvars.iv
  %36 = load i32, ptr %35, align 4, !tbaa !64
  %37 = getelementptr inbounds nuw [4 x i32], ptr %27, i64 0, i64 %indvars.iv
  %38 = load i32, ptr %37, align 4, !tbaa !64
  %39 = mul nsw i32 %38, %36
  %40 = sext i32 %39 to i64
  %41 = getelementptr inbounds i8, ptr %34, i64 %40
  %42 = getelementptr inbounds nuw [4 x i32], ptr %25, i64 0, i64 %indvars.iv
  %43 = load i32, ptr %42, align 4, !tbaa !64
  %44 = sext i32 %43 to i64
  %45 = getelementptr inbounds i8, ptr %41, i64 %44
  %46 = load ptr, ptr %28, align 8, !tbaa !102
  %47 = getelementptr inbounds nuw [8 x ptr], ptr %46, i64 0, i64 %indvars.iv
  %48 = load ptr, ptr %47, align 8, !tbaa !69
  %49 = getelementptr inbounds nuw i8, ptr %46, i64 64
  %50 = getelementptr inbounds nuw [8 x i32], ptr %49, i64 0, i64 %indvars.iv
  %51 = load i32, ptr %50, align 4, !tbaa !64
  %52 = getelementptr inbounds nuw [4 x i32], ptr %29, i64 0, i64 %indvars.iv
  %53 = load i32, ptr %52, align 4, !tbaa !64
  %54 = getelementptr inbounds nuw [4 x i32], ptr %30, i64 0, i64 %indvars.iv
  %55 = load i32, ptr %54, align 4, !tbaa !64
  tail call void @av_image_copy_plane(ptr noundef %45, i32 noundef %36, ptr noundef %48, i32 noundef %51, i32 noundef %53, i32 noundef %55) #11
  %indvars.iv.next = add nuw nsw i64 %indvars.iv, 1
  %56 = load i32, ptr %18, align 4, !tbaa !75
  %57 = sext i32 %56 to i64
  %58 = icmp slt i64 %indvars.iv.next, %57
  br i1 %58, label %32, label %._crit_edge, !llvm.loop !103
}